target datalayout = "e-m:e-p270:32:32-p271:32:32-p272:64:64-i64:64-i128:128-f80:128-n8:16:32:64-S128"
target triple = "x86_64-pc-linux-gnu"

@.str.50 = private unnamed_addr constant [1 x i8] zeroinitializer, align 1
@.str.220 = private unnamed_addr constant [23 x i8] c"variable length of\0A%*s\00", align 1

; Function Attrs: nounwind uwtable
define internal zeroext i1 @print_vlen_type(ptr noundef %0, i64 noundef %1, i32 noundef %2) #0 {
  %4 = alloca i1, align 1
  %5 = alloca ptr, align 8
  %6 = alloca i64, align 8
  %7 = alloca i32, align 4
  %8 = alloca i64, align 8
  %9 = alloca i32, align 4
  store ptr %0, ptr %5, align 8, !tbaa !81
  store i64 %1, ptr %6, align 8, !tbaa !11
  store i32 %2, ptr %7, align 4, !tbaa !4
  call void @llvm.lifetime.start.p0(i64 8, ptr %8) #12
  %10 = load i64, ptr %6, align 8, !tbaa !11
  %11 = call i32 @H5Tget_class(i64 noundef %10)
  %12 = icmp ne i32 9, %11
  br i1 %12, label %13, label %14

13:                                               ; preds = %3
  store i1 false, ptr %4, align 1
  store i32 1, ptr %9, align 4
  br label %27

14:                                               ; preds = %3
  %15 = load ptr, ptr %5, align 8, !tbaa !81
  %16 = load i32, ptr %7, align 4, !tbaa !4
  %17 = add nsw i32 %16, 4
  %18 = call ptr (ptr, ptr, ...) @h5tools_str_append(ptr noundef %15, ptr noundef @.str.220, i32 noundef %17, ptr noundef @.str.50)
  %19 = load i64, ptr %6, align 8, !tbaa !11
  %20 = call i64 @H5Tget_super(i64 noundef %19)
  store i64 %20, ptr %8, align 8, !tbaa !11
  %21 = load ptr, ptr %5, align 8, !tbaa !81
  %22 = load i64, ptr %8, align 8, !tbaa !11
  %23 = load i32, ptr %7, align 4, !tbaa !4
  %24 = add nsw i32 %23, 4
  call void @print_type(ptr noundef %21, i64 noundef %22, i32 noundef %24)
  %25 = load i64, ptr %8, align 8, !tbaa !11
  %26 = call i32 @H5Tclose(i64 noundef %25)
  store i1 true, ptr %4, align 1
  store i32 1, ptr %9, align 4
  br label %27

27:                                               ; preds = %14, %13
  call void @llvm.lifetime.end.p0(i64 8, ptr %8) #12
  %28 = load i1, ptr %4, align 1
  ret i1 %28
}