; Function Attrs: nounwind uwtable
define internal fastcc noundef zeroext i1 @print_vlen_type(ptr noundef nonnull %0, i64 noundef range(i64 0, -9223372036854775808) %1, i32 noundef %2) unnamed_addr #4 {
  %4 = tail call i32 @H5Tget_class(i64 noundef %1) #20
  %.not = icmp eq i32 %4, 9
  br i1 %.not, label %5, label %10

5:                                                ; preds = %3
  %6 = add nsw i32 %2, 4
  %7 = tail call ptr (ptr, ptr, ...) @h5tools_str_append(ptr noundef nonnull %0, ptr noundef nonnull @.str.220, i32 noundef %6, ptr noundef nonnull @.str.50) #20
  %8 = tail call i64 @H5Tget_super(i64 noundef %1) #20
  tail call fastcc void @print_type(ptr noundef %0, i64 noundef %8, i32 noundef %6)
  %9 = tail call i32 @H5Tclose(i64 noundef %8) #20
  br label %10

10:                                               ; preds = %3, %5
  ret i1 %.not
}